; Function Attrs: cold mustprogress noreturn uwtable
define noalias noundef nonnull ptr @lean_llvm_opaque_pointer_type_in_context(i64 noundef %0, i64 noundef %1, ptr noundef readnone captures(none) %2) local_unnamed_addr #1 personality ptr @__gxx_personality_v0 {
  tail call void @_ZN4lean26notify_assertion_violationEPKciS1_(ptr noundef nonnull @.str, i32 noundef 400, ptr noundef nonnull @.str.1)
  %4 = tail call ptr @__cxa_allocate_exception(i64 40) #11
  %5 = getelementptr inbounds nuw i8, ptr %4, i64 8
  %6 = getelementptr inbounds nuw i8, ptr %4, i64 24
  store ptr %6, ptr %5, align 8, !tbaa !10
  %7 = getelementptr inbounds nuw i8, ptr %4, i64 16
  store i64 0, ptr %7, align 8, !tbaa !13
  store i8 0, ptr %6, align 1, !tbaa !16
  store ptr getelementptr inbounds nuw inrange(-16, 24) (i8, ptr @_ZTVN4lean19unreachable_reachedE, i64 16), ptr %4, align 8, !tbaa !17
  tail call void @__cxa_throw(ptr nonnull %4, ptr nonnull @_ZTIN4lean19unreachable_reachedE, ptr nonnull @_ZN4lean9throwableD2Ev) #12
  unreachable
}